target datalayout = "e-m:e-p270:32:32-p271:32:32-p272:64:64-i64:64-i128:128-f80:128-n8:16:32:64-S128"
target triple = "x86_64-pc-linux-gnu"

%"class.cv::epnp" = type { double, double, double, double, %"class.std::vector", %"class.std::vector", %"class.std::vector", %"class.std::vector", i32, [4 x [3 x double]], [4 x [3 x double]], i32, ptr, ptr }
%"class.std::vector" = type { %"struct.std::_Vector_base" }
%"struct.std::_Vector_base" = type { %"struct.std::_Vector_base<double, std::allocator<double>>::_Vector_impl" }
%"struct.std::_Vector_base<double, std::allocator<double>>::_Vector_impl" = type { %"struct.std::_Vector_base<double, std::allocator<double>>::_Vector_impl_data" }
%"struct.std::_Vector_base<double, std::allocator<double>>::_Vector_impl_data" = type { ptr, ptr, ptr }

; Function Attrs: mustprogress nounwind uwtable
define hidden noundef double @_ZN2cv4epnp5dist2EPKdS2_(ptr noundef nonnull align 8 dereferenceable(352) %0, ptr noundef %1, ptr noundef %2) #5 align 2 {
  %4 = alloca ptr, align 8
  %5 = alloca ptr, align 8
  %6 = alloca ptr, align 8
  store ptr %0, ptr %4, align 8, !tbaa !3
  store ptr %1, ptr %5, align 8, !tbaa !83
  store ptr %2, ptr %6, align 8, !tbaa !83
  %7 = load ptr, ptr %5, align 8, !tbaa !83
  %8 = getelementptr inbounds double, ptr %7, i64 0
  %9 = load double, ptr %8, align 8, !tbaa !40
  %10 = load ptr, ptr %6, align 8, !tbaa !83
  %11 = getelementptr inbounds double, ptr %10, i64 0
  %12 = load double, ptr %11, align 8, !tbaa !40
  %13 = fsub double %9, %12
  %14 = load ptr, ptr %5, align 8, !tbaa !83
  %15 = getelementptr inbounds double, ptr %14, i64 0
  %16 = load double, ptr %15, align 8, !tbaa !40
  %17 = load ptr, ptr %6, align 8, !tbaa !83
  %18 = getelementptr inbounds double, ptr %17, i64 0
  %19 = load double, ptr %18, align 8, !tbaa !40
  %20 = fsub double %16, %19
  %21 = load ptr, ptr %5, align 8, !tbaa !83
  %22 = getelementptr inbounds double, ptr %21, i64 1
  %23 = load double, ptr %22, align 8, !tbaa !40
  %24 = load ptr, ptr %6, align 8, !tbaa !83
  %25 = getelementptr inbounds double, ptr %24, i64 1
  %26 = load double, ptr %25, align 8, !tbaa !40
  %27 = fsub double %23, %26
  %28 = load ptr, ptr %5, align 8, !tbaa !83
  %29 = getelementptr inbounds double, ptr %28, i64 1
  %30 = load double, ptr %29, align 8, !tbaa !40
  %31 = load ptr, ptr %6, align 8, !tbaa !83
  %32 = getelementptr inbounds double, ptr %31, i64 1
  %33 = load double, ptr %32, align 8, !tbaa !40
  %34 = fsub double %30, %33
  %35 = fmul double %27, %34
  %36 = call double @llvm.fmuladd.f64(double %13, double %20, double %35)
  %37 = load ptr, ptr %5, align 8, !tbaa !83
  %38 = getelementptr inbounds double, ptr %37, i64 2
  %39 = load double, ptr %38, align 8, !tbaa !40
  %40 = load ptr, ptr %6, align 8, !tbaa !83
  %41 = getelementptr inbounds double, ptr %40, i64 2
  %42 = load double, ptr %41, align 8, !tbaa !40
  %43 = fsub double %39, %42
  %44 = load ptr, ptr %5, align 8, !tbaa !83
  %45 = getelementptr inbounds double, ptr %44, i64 2
  %46 = load double, ptr %45, align 8, !tbaa !40
  %47 = load ptr, ptr %6, align 8, !tbaa !83
  %48 = getelementptr inbounds double, ptr %47, i64 2
  %49 = load double, ptr %48, align 8, !tbaa !40
  %50 = fsub double %46, %49
  %51 = call double @llvm.fmuladd.f64(double %43, double %50, double %36)
  ret double %51
}

; Function Attrs: mustprogress nounwind uwtable
define hidden void @_ZN2cv4epnp11compute_rhoEPd(ptr noundef nonnull align 8 dereferenceable(352) %0, ptr noundef %1) #5 align 2 {
  %3 = alloca ptr, align 8
  %4 = alloca ptr, align 8
  store ptr %0, ptr %3, align 8, !tbaa !3
  store ptr %1, ptr %4, align 8, !tbaa !83
  %5 = load ptr, ptr %3, align 8
  %6 = getelementptr inbounds nuw %"class.cv::epnp", ptr %5, i32 0, i32 9
  %7 = getelementptr inbounds [4 x [3 x double]], ptr %6, i64 0, i64 0
  %8 = getelementptr inbounds [3 x double], ptr %7, i64 0, i64 0
  %9 = getelementptr inbounds nuw %"class.cv::epnp", ptr %5, i32 0, i32 9
  %10 = getelementptr inbounds [4 x [3 x double]], ptr %9, i64 0, i64 1
  %11 = getelementptr inbounds [3 x double], ptr %10, i64 0, i64 0
  %12 = call noundef double @_ZN2cv4epnp5dist2EPKdS2_(ptr noundef nonnull align 8 dereferenceable(352) %5, ptr noundef %8, ptr noundef %11)
  %13 = load ptr, ptr %4, align 8, !tbaa !83
  %14 = getelementptr inbounds double, ptr %13, i64 0
  store double %12, ptr %14, align 8, !tbaa !40
  %15 = getelementptr inbounds nuw %"class.cv::epnp", ptr %5, i32 0, i32 9
  %16 = getelementptr inbounds [4 x [3 x double]], ptr %15, i64 0, i64 0
  %17 = getelementptr inbounds [3 x double], ptr %16, i64 0, i64 0
  %18 = getelementptr inbounds nuw %"class.cv::epnp", ptr %5, i32 0, i32 9
  %19 = getelementptr inbounds [4 x [3 x double]], ptr %18, i64 0, i64 2
  %20 = getelementptr inbounds [3 x double], ptr %19, i64 0, i64 0
  %21 = call noundef double @_ZN2cv4epnp5dist2EPKdS2_(ptr noundef nonnull align 8 dereferenceable(352) %5, ptr noundef %17, ptr noundef %20)
  %22 = load ptr, ptr %4, align 8, !tbaa !83
  %23 = getelementptr inbounds double, ptr %22, i64 1
  store double %21, ptr %23, align 8, !tbaa !40
  %24 = getelementptr inbounds nuw %"class.cv::epnp", ptr %5, i32 0, i32 9
  %25 = getelementptr inbounds [4 x [3 x double]], ptr %24, i64 0, i64 0
  %26 = getelementptr inbounds [3 x double], ptr %25, i64 0, i64 0
  %27 = getelementptr inbounds nuw %"class.cv::epnp", ptr %5, i32 0, i32 9
  %28 = getelementptr inbounds [4 x [3 x double]], ptr %27, i64 0, i64 3
  %29 = getelementptr inbounds [3 x double], ptr %28, i64 0, i64 0
  %30 = call noundef double @_ZN2cv4epnp5dist2EPKdS2_(ptr noundef nonnull align 8 dereferenceable(352) %5, ptr noundef %26, ptr noundef %29)
  %31 = load ptr, ptr %4, align 8, !tbaa !83
  %32 = getelementptr inbounds double, ptr %31, i64 2
  store double %30, ptr %32, align 8, !tbaa !40
  %33 = getelementptr inbounds nuw %"class.cv::epnp", ptr %5, i32 0, i32 9
  %34 = getelementptr inbounds [4 x [3 x double]], ptr %33, i64 0, i64 1
  %35 = getelementptr inbounds [3 x double], ptr %34, i64 0, i64 0
  %36 = getelementptr inbounds nuw %"class.cv::epnp", ptr %5, i32 0, i32 9
  %37 = getelementptr inbounds [4 x [3 x double]], ptr %36, i64 0, i64 2
  %38 = getelementptr inbounds [3 x double], ptr %37, i64 0, i64 0
  %39 = call noundef double @_ZN2cv4epnp5dist2EPKdS2_(ptr noundef nonnull align 8 dereferenceable(352) %5, ptr noundef %35, ptr noundef %38)
  %40 = load ptr, ptr %4, align 8, !tbaa !83
  %41 = getelementptr inbounds double, ptr %40, i64 3
  store double %39, ptr %41, align 8, !tbaa !40
  %42 = getelementptr inbounds nuw %"class.cv::epnp", ptr %5, i32 0, i32 9
  %43 = getelementptr inbounds [4 x [3 x double]], ptr %42, i64 0, i64 1
  %44 = getelementptr inbounds [3 x double], ptr %43, i64 0, i64 0
  %45 = getelementptr inbounds nuw %"class.cv::epnp", ptr %5, i32 0, i32 9
  %46 = getelementptr inbounds [4 x [3 x double]], ptr %45, i64 0, i64 3
  %47 = getelementptr inbounds [3 x double], ptr %46, i64 0, i64 0
  %48 = call noundef double @_ZN2cv4epnp5dist2EPKdS2_(ptr noundef nonnull align 8 dereferenceable(352) %5, ptr noundef %44, ptr noundef %47)
  %49 = load ptr, ptr %4, align 8, !tbaa !83
  %50 = getelementptr inbounds double, ptr %49, i64 4
  store double %48, ptr %50, align 8, !tbaa !40
  %51 = getelementptr inbounds nuw %"class.cv::epnp", ptr %5, i32 0, i32 9
  %52 = getelementptr inbounds [4 x [3 x double]], ptr %51, i64 0, i64 2
  %53 = getelementptr inbounds [3 x double], ptr %52, i64 0, i64 0
  %54 = getelementptr inbounds nuw %"class.cv::epnp", ptr %5, i32 0, i32 9
  %55 = getelementptr inbounds [4 x [3 x double]], ptr %54, i64 0, i64 3
  %56 = getelementptr inbounds [3 x double], ptr %55, i64 0, i64 0
  %57 = call noundef double @_ZN2cv4epnp5dist2EPKdS2_(ptr noundef nonnull align 8 dereferenceable(352) %5, ptr noundef %53, ptr noundef %56)
  %58 = load ptr, ptr %4, align 8, !tbaa !83
  %59 = getelementptr inbounds double, ptr %58, i64 5
  store double %57, ptr %59, align 8, !tbaa !40
  ret void
}