; Function Attrs: mustprogress nofree norecurse nosync nounwind willreturn memory(argmem: readwrite) uwtable
define hidden void @_ZN2cv4epnp11compute_rhoEPd(ptr noundef nonnull readonly align 8 captures(none) dereferenceable(352) %0, ptr noundef writeonly captures(none) initializes((0, 48)) %1) local_unnamed_addr #14 align 2 {
  %3 = getelementptr inbounds nuw i8, ptr %0, i64 136
  %4 = getelementptr inbounds nuw i8, ptr %0, i64 160
  %5 = load double, ptr %3, align 8, !tbaa !32
  %6 = load double, ptr %4, align 8, !tbaa !32
  %7 = fsub double %5, %6
  %8 = getelementptr inbounds nuw i8, ptr %0, i64 144
  %9 = load double, ptr %8, align 8, !tbaa !32
  %10 = getelementptr inbounds nuw i8, ptr %0, i64 168
  %11 = load double, ptr %10, align 8, !tbaa !32
  %12 = fsub double %9, %11
  %13 = fmul double %12, %12
  %14 = tail call double @llvm.fmuladd.f64(double %7, double %7, double %13)
  %15 = getelementptr inbounds nuw i8, ptr %0, i64 152
  %16 = load double, ptr %15, align 8, !tbaa !32
  %17 = getelementptr inbounds nuw i8, ptr %0, i64 176
  %18 = load double, ptr %17, align 8, !tbaa !32
  %19 = fsub double %16, %18
  %20 = tail call noundef double @llvm.fmuladd.f64(double %19, double %19, double %14)
  store double %20, ptr %1, align 8, !tbaa !32
  %21 = getelementptr inbounds nuw i8, ptr %0, i64 184
  %22 = load double, ptr %3, align 8, !tbaa !32
  %23 = load double, ptr %21, align 8, !tbaa !32
  %24 = fsub double %22, %23
  %25 = load double, ptr %8, align 8, !tbaa !32
  %26 = getelementptr inbounds nuw i8, ptr %0, i64 192
  %27 = load double, ptr %26, align 8, !tbaa !32
  %28 = fsub double %25, %27
  %29 = fmul double %28, %28
  %30 = tail call double @llvm.fmuladd.f64(double %24, double %24, double %29)
  %31 = load double, ptr %15, align 8, !tbaa !32
  %32 = getelementptr inbounds nuw i8, ptr %0, i64 200
  %33 = load double, ptr %32, align 8, !tbaa !32
  %34 = fsub double %31, %33
  %35 = tail call noundef double @llvm.fmuladd.f64(double %34, double %34, double %30)
  %36 = getelementptr inbounds nuw i8, ptr %1, i64 8
  store double %35, ptr %36, align 8, !tbaa !32
  %37 = getelementptr inbounds nuw i8, ptr %0, i64 208
  %38 = load double, ptr %3, align 8, !tbaa !32
  %39 = load double, ptr %37, align 8, !tbaa !32
  %40 = fsub double %38, %39
  %41 = load double, ptr %8, align 8, !tbaa !32
  %42 = getelementptr inbounds nuw i8, ptr %0, i64 216
  %43 = load double, ptr %42, align 8, !tbaa !32
  %44 = fsub double %41, %43
  %45 = fmul double %44, %44
  %46 = tail call double @llvm.fmuladd.f64(double %40, double %40, double %45)
  %47 = load double, ptr %15, align 8, !tbaa !32
  %48 = getelementptr inbounds nuw i8, ptr %0, i64 224
  %49 = load double, ptr %48, align 8, !tbaa !32
  %50 = fsub double %47, %49
  %51 = tail call noundef double @llvm.fmuladd.f64(double %50, double %50, double %46)
  %52 = getelementptr inbounds nuw i8, ptr %1, i64 16
  store double %51, ptr %52, align 8, !tbaa !32
  %53 = load double, ptr %4, align 8, !tbaa !32
  %54 = load double, ptr %21, align 8, !tbaa !32
  %55 = fsub double %53, %54
  %56 = load double, ptr %10, align 8, !tbaa !32
  %57 = load double, ptr %26, align 8, !tbaa !32
  %58 = fsub double %56, %57
  %59 = fmul double %58, %58
  %60 = tail call double @llvm.fmuladd.f64(double %55, double %55, double %59)
  %61 = load double, ptr %17, align 8, !tbaa !32
  %62 = load double, ptr %32, align 8, !tbaa !32
  %63 = fsub double %61, %62
  %64 = tail call noundef double @llvm.fmuladd.f64(double %63, double %63, double %60)
  %65 = getelementptr inbounds nuw i8, ptr %1, i64 24
  store double %64, ptr %65, align 8, !tbaa !32
  %66 = load double, ptr %4, align 8, !tbaa !32
  %67 = load double, ptr %37, align 8, !tbaa !32
  %68 = fsub double %66, %67
  %69 = load double, ptr %10, align 8, !tbaa !32
  %70 = load double, ptr %42, align 8, !tbaa !32
  %71 = fsub double %69, %70
  %72 = fmul double %71, %71
  %73 = tail call double @llvm.fmuladd.f64(double %68, double %68, double %72)
  %74 = load double, ptr %17, align 8, !tbaa !32
  %75 = load double, ptr %48, align 8, !tbaa !32
  %76 = fsub double %74, %75
  %77 = tail call noundef double @llvm.fmuladd.f64(double %76, double %76, double %73)
  %78 = getelementptr inbounds nuw i8, ptr %1, i64 32
  store double %77, ptr %78, align 8, !tbaa !32
  %79 = load double, ptr %21, align 8, !tbaa !32
  %80 = load double, ptr %37, align 8, !tbaa !32
  %81 = fsub double %79, %80
  %82 = load double, ptr %26, align 8, !tbaa !32
  %83 = load double, ptr %42, align 8, !tbaa !32
  %84 = fsub double %82, %83
  %85 = fmul double %84, %84
  %86 = tail call double @llvm.fmuladd.f64(double %81, double %81, double %85)
  %87 = load double, ptr %32, align 8, !tbaa !32
  %88 = load double, ptr %48, align 8, !tbaa !32
  %89 = fsub double %87, %88
  %90 = tail call noundef double @llvm.fmuladd.f64(double %89, double %89, double %86)
  %91 = getelementptr inbounds nuw i8, ptr %1, i64 40
  store double %90, ptr %91, align 8, !tbaa !32
  ret void
}